target datalayout = "e-m:e-p270:32:32-p271:32:32-p272:64:64-i64:64-i128:128-f80:128-n8:16:32:64-S128"
target triple = "x86_64-pc-linux-gnu"

%"class.cv::detail::tracking::contrib_feature::CvParams" = type { ptr, %"class.std::__cxx11::basic_string" }
%"class.std::__cxx11::basic_string" = type { %"struct.std::__cxx11::basic_string<char>::_Alloc_hider", i64, %union.anon }
%"struct.std::__cxx11::basic_string<char>::_Alloc_hider" = type { ptr }
%union.anon = type { i64, [8 x i8] }
%"class.cv::detail::tracking::contrib_feature::CvFeatureParams" = type <{ %"class.cv::detail::tracking::contrib_feature::CvParams", i32, i32, i32, [4 x i8] }>
%"class.cv::Size_" = type { i32, i32 }
%"class.cv::detail::tracking::contrib_feature::CvFeatureEvaluator" = type { ptr, i32, i32, i32, %"class.cv::Size_", ptr, %"class.cv::Mat" }
%"class.cv::Mat" = type { i32, i32, i32, i32, ptr, ptr, ptr, ptr, ptr, ptr, %"struct.cv::MatSize", %"struct.cv::MatStep" }
%"struct.cv::MatSize" = type { ptr }
%"struct.cv::MatStep" = type { ptr, [2 x i64] }

; Function Attrs: mustprogress uwtable
define hidden void @_ZN2cv6detail8tracking15contrib_feature15CvHaarEvaluator16generateFeaturesEv(ptr noundef nonnull align 8 dereferenceable(360) %0) unnamed_addr #4 align 2 {
  %2 = alloca ptr, align 8
  store ptr %0, ptr %2, align 8, !tbaa !81
  %3 = load ptr, ptr %2, align 8
  %4 = getelementptr inbounds nuw %"class.cv::detail::tracking::contrib_feature::CvFeatureEvaluator", ptr %3, i32 0, i32 5
  %5 = load ptr, ptr %4, align 8, !tbaa !57
  %6 = getelementptr inbounds nuw %"class.cv::detail::tracking::contrib_feature::CvFeatureParams", ptr %5, i32 0, i32 3
  %7 = load i32, ptr %6, align 8, !tbaa !29
  %8 = load ptr, ptr %3, align 8, !tbaa !8
  %9 = getelementptr inbounds ptr, ptr %8, i64 7
  %10 = load ptr, ptr %9, align 8
  call void %10(ptr noundef nonnull align 8 dereferenceable(360) %3, i32 noundef %7)
  ret void
}